; Function Attrs: mustprogress uwtable
define hidden void @_ZN22cofactor_elim_term_ite7cleanupEv(ptr noundef nonnull align 8 dereferenceable(24) %0) local_unnamed_addr #3 align 2 personality ptr @__gxx_personality_v0 {
  %2 = getelementptr inbounds nuw i8, ptr %0, i64 8
  %3 = load ptr, ptr %2, align 8, !tbaa !17
  %4 = load ptr, ptr %3, align 8, !tbaa !20
  %5 = tail call noalias noundef ptr @_ZN6memory8allocateEm(i64 noundef 32)
  %6 = getelementptr inbounds nuw i8, ptr %0, i64 16
  store ptr %4, ptr %5, align 8, !tbaa !6
  %7 = getelementptr inbounds nuw i8, ptr %5, i64 8
  tail call void @_ZN10params_refC1ERKS_(ptr noundef nonnull align 8 dereferenceable(8) %7, ptr noundef nonnull align 8 dereferenceable(8) %6)
  %8 = getelementptr inbounds nuw i8, ptr %5, i64 24
  store i8 1, ptr %8, align 8, !tbaa !10
  %9 = invoke noundef i32 @_ZNK10params_ref8get_uintEPKcj(ptr noundef nonnull align 8 dereferenceable(8) %6, ptr noundef nonnull @.str, i32 noundef -1)
          to label %.noexc.i unwind label %15

.noexc.i:                                         ; preds = %1
  %10 = icmp eq i32 %9, -1
  %11 = zext i32 %9 to i64
  %12 = shl nuw nsw i64 %11, 20
  %.0.i.i.i = select i1 %10, i64 -1, i64 %12
  %13 = getelementptr inbounds nuw i8, ptr %5, i64 16
  store i64 %.0.i.i.i, ptr %13, align 8, !tbaa !16
  %14 = invoke noundef zeroext i1 @_ZNK10params_ref8get_boolEPKcb(ptr noundef nonnull align 8 dereferenceable(8) %6, ptr noundef nonnull @.str.1, i1 noundef zeroext true)
          to label %_ZN22cofactor_elim_term_ite3impC2ER11ast_managerRK10params_ref.exit unwind label %15

15:                                               ; preds = %.noexc.i, %1
  %16 = landingpad { ptr, i32 }
          cleanup
  tail call void @_ZN10params_refD1Ev(ptr noundef nonnull align 8 dereferenceable(8) %7) #18
  resume { ptr, i32 } %16

_ZN22cofactor_elim_term_ite3impC2ER11ast_managerRK10params_ref.exit: ; preds = %.noexc.i
  %17 = zext i1 %14 to i8
  store i8 %17, ptr %8, align 8, !tbaa !10
  %18 = load ptr, ptr %2, align 8, !tbaa !21
  store ptr %5, ptr %2, align 8, !tbaa !21
  %19 = icmp eq ptr %18, null
  br i1 %19, label %_Z7deallocIN22cofactor_elim_term_ite3impEEvPT_.exit, label %20

20:                                               ; preds = %_ZN22cofactor_elim_term_ite3impC2ER11ast_managerRK10params_ref.exit
  %21 = getelementptr inbounds nuw i8, ptr %18, i64 8
  tail call void @_ZN10params_refD1Ev(ptr noundef nonnull align 8 dereferenceable(8) %21) #18
  tail call void @_ZN6memory10deallocateEPv(ptr noundef nonnull %18)
  br label %_Z7deallocIN22cofactor_elim_term_ite3impEEvPT_.exit

_Z7deallocIN22cofactor_elim_term_ite3impEEvPT_.exit: ; preds = %_ZN22cofactor_elim_term_ite3impC2ER11ast_managerRK10params_ref.exit, %20
  ret void
}